; Function Attrs: mustprogress nounwind uwtable
define hidden void @_ZN12EventLogBaseI9GCMessageE5printEP12outputStreamRS0_(ptr nocapture noundef nonnull readnone align 8 dereferenceable(160) %0, ptr noundef nonnull %1, ptr nocapture noundef nonnull readonly align 8 dereferenceable(1033) %2) local_unnamed_addr #0 align 2 {
  %4 = getelementptr inbounds i8, ptr %2, i64 1032
  %5 = load i8, ptr %4, align 8
  %6 = trunc i8 %5 to i1
  %7 = select i1 %6, ptr @.str.4, ptr @.str.5
  tail call void (ptr, ptr, ...) @_ZN12outputStream8print_crEPKcz(ptr noundef nonnull align 8 dereferenceable(56) %1, ptr noundef nonnull @.str, ptr noundef nonnull %7) #18
  %8 = load ptr, ptr %2, align 8
  %9 = tail call i64 @strlen(ptr noundef nonnull dereferenceable(1) %8) #19
  tail call void @_ZN12outputStream9print_rawEPKcm(ptr noundef nonnull align 8 dereferenceable(56) %1, ptr noundef %8, i64 noundef %9) #18
  ret void
}